; Function Attrs: mustprogress nounwind uwtable
define hidden noundef i64 @_ZN14JfrSymbolTable4markEmPKcb(ptr nocapture noundef nonnull align 8 dereferenceable(57) %0, i64 noundef %1, ptr noundef %2, i1 noundef zeroext %3) local_unnamed_addr #0 align 2 {
  %5 = alloca ptr, align 8
  store ptr %2, ptr %5, align 8
  %6 = getelementptr inbounds i8, ptr %0, i64 40
  store ptr %2, ptr %6, align 8
  %7 = getelementptr inbounds i8, ptr %0, i64 8
  %8 = load ptr, ptr %7, align 8
  %9 = getelementptr inbounds i8, ptr %8, i64 8
  %10 = load i64, ptr %9, align 8
  %11 = urem i64 %1, %10
  %12 = load ptr, ptr %8, align 8
  %13 = getelementptr inbounds %class.JfrHashtableBucket.31, ptr %12, i64 %11
  %14 = load volatile ptr, ptr %13, align 8
  tail call void asm sideeffect "", "~{memory},~{dirflag},~{fpsr},~{flags}"() #15, !srcloc !11
  %.not11.i.i = icmp eq ptr %14, null
  br i1 %.not11.i.i, label %.loopexit.i, label %.lr.ph.i.i

.lr.ph.i.i:                                       ; preds = %4
  %15 = getelementptr inbounds i8, ptr %8, i64 32
  %16 = load ptr, ptr %15, align 8
  %17 = getelementptr inbounds i8, ptr %16, i64 40
  br label %18

18:                                               ; preds = %29, %.lr.ph.i.i
  %.012.i.i = phi ptr [ %14, %.lr.ph.i.i ], [ %30, %29 ]
  %19 = getelementptr inbounds i8, ptr %.012.i.i, i64 16
  %20 = load i64, ptr %19, align 8
  %21 = icmp eq i64 %20, %1
  br i1 %21, label %22, label %29

22:                                               ; preds = %18
  %23 = load ptr, ptr %17, align 8
  %24 = getelementptr inbounds i8, ptr %.012.i.i, i64 8
  %25 = load ptr, ptr %24, align 8
  %26 = tail call i64 @strlen(ptr noundef nonnull readonly dereferenceable(1) %23) #16
  %27 = tail call i32 @strncmp(ptr noundef readonly %23, ptr noundef readonly %25, i64 noundef %26) #16
  %28 = icmp eq i32 %27, 0
  br i1 %28, label %_ZN13HashTableHostIPKcm9ListEntry14JfrSymbolTableLm1009EE10lookup_putEmRKS1_.exit, label %29

29:                                               ; preds = %22, %18
  %30 = load ptr, ptr %.012.i.i, align 8
  %.not.i.i = icmp eq ptr %30, null
  br i1 %.not.i.i, label %.loopexit.i, label %18, !llvm.loop !14

.loopexit.i:                                      ; preds = %29, %4
  %31 = call noundef nonnull align 8 dereferenceable(43) ptr @_ZN13HashTableHostIPKcm9ListEntry14JfrSymbolTableLm1009EE3putEmRKS1_(ptr noundef nonnull align 8 dereferenceable(40) %8, i64 noundef %1, ptr noundef nonnull align 8 dereferenceable(8) %5)
  br label %_ZN13HashTableHostIPKcm9ListEntry14JfrSymbolTableLm1009EE10lookup_putEmRKS1_.exit

_ZN13HashTableHostIPKcm9ListEntry14JfrSymbolTableLm1009EE10lookup_putEmRKS1_.exit: ; preds = %22, %.loopexit.i
  %32 = phi ptr [ %31, %.loopexit.i ], [ %.012.i.i, %22 ]
  %33 = getelementptr inbounds i8, ptr %0, i64 56
  %34 = load i8, ptr %33, align 8
  %35 = trunc i8 %34 to i1
  br i1 %35, label %36, label %38

36:                                               ; preds = %_ZN13HashTableHostIPKcm9ListEntry14JfrSymbolTableLm1009EE10lookup_putEmRKS1_.exit
  %37 = getelementptr inbounds i8, ptr %32, i64 41
  store i8 1, ptr %37, align 1
  br label %38

38:                                               ; preds = %36, %_ZN13HashTableHostIPKcm9ListEntry14JfrSymbolTableLm1009EE10lookup_putEmRKS1_.exit
  br i1 %3, label %39, label %41

39:                                               ; preds = %38
  %40 = getelementptr inbounds i8, ptr %32, i64 42
  store i8 1, ptr %40, align 2
  br label %41

41:                                               ; preds = %39, %38
  %42 = getelementptr inbounds i8, ptr %32, i64 24
  %43 = load i64, ptr %42, align 8
  ret i64 %43
}